; ModuleID = '52/5552.cpp'
source_filename = "52/5552.cpp"
target datalayout = "e-m:e-p270:32:32-p271:32:32-p272:64:64-i64:64-f80:128-n8:16:32:64-S128"
target triple = "x86_64-pc-linux-gnu"

%"class.std::ios_base::Init" = type { i8 }
%"class.std::basic_istream" = type { i32 (...)**, i64, %"class.std::basic_ios" }
%"class.std::basic_ios" = type { %"class.std::ios_base", %"class.std::basic_ostream"*, i8, i8, %"class.std::basic_streambuf"*, %"class.std::ctype"*, %"class.std::num_put"*, %"class.std::num_get"* }
%"class.std::ios_base" = type { i32 (...)**, i64, i64, i32, i32, i32, %"struct.std::ios_base::_Callback_list"*, %"struct.std::ios_base::_Words", [8 x %"struct.std::ios_base::_Words"], i32, %"struct.std::ios_base::_Words"*, %"class.std::locale" }
%"struct.std::ios_base::_Callback_list" = type { %"struct.std::ios_base::_Callback_list"*, void (i32, %"class.std::ios_base"*, i32)*, i32, i32 }
%"struct.std::ios_base::_Words" = type { i8*, i64 }
%"class.std::locale" = type { %"class.std::locale::_Impl"* }
%"class.std::locale::_Impl" = type { i32, %"class.std::locale::facet"**, i64, %"class.std::locale::facet"**, i8** }
%"class.std::locale::facet" = type <{ i32 (...)**, i32, [4 x i8] }>
%"class.std::basic_ostream" = type { i32 (...)**, %"class.std::basic_ios" }
%"class.std::basic_streambuf" = type { i32 (...)**, i8*, i8*, i8*, i8*, i8*, i8*, %"class.std::locale" }
%"class.std::ctype" = type <{ %"class.std::locale::facet.base", [4 x i8], %struct.__locale_struct*, i8, [7 x i8], i32*, i32*, i16*, i8, [256 x i8], [256 x i8], i8, [6 x i8] }>
%"class.std::locale::facet.base" = type <{ i32 (...)**, i32 }>
%struct.__locale_struct = type { [13 x %struct.__locale_data*], i16*, i32*, i32*, [13 x i8*] }
%struct.__locale_data = type opaque
%"class.std::num_put" = type { %"class.std::locale::facet.base", [4 x i8] }
%"class.std::num_get" = type { %"class.std::locale::facet.base", [4 x i8] }

@_ZStL8__ioinit = internal global %"class.std::ios_base::Init" zeroinitializer, align 1
@__dso_handle = external hidden global i8
@_ZSt3cin = external dso_local global %"class.std::basic_istream", align 8
@_ZSt4cout = external dso_local global %"class.std::basic_ostream", align 8
@llvm.global_ctors = appending global [1 x { i32, void ()*, i8* }] [{ i32, void ()*, i8* } { i32 65535, void ()* @_GLOBAL__sub_I_5552.cpp, i8* null }]

; Function Attrs: noinline uwtable
define internal void @__cxx_global_var_init() #0 section ".text.startup" {
  call void @_ZNSt8ios_base4InitC1Ev(%"class.std::ios_base::Init"* @_ZStL8__ioinit)
  %1 = call i32 @__cxa_atexit(void (i8*)* bitcast (void (%"class.std::ios_base::Init"*)* @_ZNSt8ios_base4InitD1Ev to void (i8*)*), i8* getelementptr inbounds (%"class.std::ios_base::Init", %"class.std::ios_base::Init"* @_ZStL8__ioinit, i32 0, i32 0), i8* @__dso_handle) #3
  ret void
}

declare dso_local void @_ZNSt8ios_base4InitC1Ev(%"class.std::ios_base::Init"*) unnamed_addr #1

; Function Attrs: nounwind
declare dso_local void @_ZNSt8ios_base4InitD1Ev(%"class.std::ios_base::Init"*) unnamed_addr #2

; Function Attrs: nounwind
declare dso_local i32 @__cxa_atexit(void (i8*)*, i8*, i8*) #3

; Function Attrs: noinline norecurse uwtable
define dso_local i32 @main() #4 {
  %1 = alloca i32, align 4
  %2 = alloca i32, align 4
  %3 = alloca i32, align 4
  %4 = alloca [100 x i32], align 16
  %5 = alloca i32, align 4
  %6 = alloca i32*, align 8
  %7 = alloca i32, align 4
  store i32 0, i32* %1, align 4
  %8 = call dereferenceable(280) %"class.std::basic_istream"* @_ZNSirsERi(%"class.std::basic_istream"* @_ZSt3cin, i32* dereferenceable(4) %2)
  %9 = call dereferenceable(280) %"class.std::basic_istream"* @_ZNSirsERi(%"class.std::basic_istream"* %8, i32* dereferenceable(4) %3)
  store i32 0, i32* %5, align 4
  br label %10

10:                                               ; preds = %19, %0
  %11 = load i32, i32* %5, align 4
  %12 = load i32, i32* %2, align 4
  %13 = icmp slt i32 %11, %12
  br i1 %13, label %14, label %22

14:                                               ; preds = %10
  %15 = load i32, i32* %5, align 4
  %16 = sext i32 %15 to i64
  %17 = getelementptr inbounds [100 x i32], [100 x i32]* %4, i64 0, i64 %16
  %18 = call dereferenceable(280) %"class.std::basic_istream"* @_ZNSirsERi(%"class.std::basic_istream"* @_ZSt3cin, i32* dereferenceable(4) %17)
  br label %19

19:                                               ; preds = %14
  %20 = load i32, i32* %5, align 4
  %21 = add nsw i32 %20, 1
  store i32 %21, i32* %5, align 4
  br label %10

22:                                               ; preds = %10
  %23 = load i32, i32* %2, align 4
  %24 = load i32, i32* %3, align 4
  %25 = srem i32 %24, %23
  store i32 %25, i32* %3, align 4
  %26 = getelementptr inbounds [100 x i32], [100 x i32]* %4, i64 0, i64 0
  store i32* %26, i32** %6, align 8
  br label %27

27:                                               ; preds = %54, %22
  %28 = load i32, i32* %3, align 4
  %29 = icmp ne i32 %28, 0
  br i1 %29, label %30, label %59

30:                                               ; preds = %27
  %31 = getelementptr inbounds [100 x i32], [100 x i32]* %4, i64 0, i64 0
  %32 = load i32, i32* %2, align 4
  %33 = sext i32 %32 to i64
  %34 = getelementptr inbounds i32, i32* %31, i64 %33
  %35 = getelementptr inbounds i32, i32* %34, i64 -1
  %36 = load i32, i32* %35, align 4
  store i32 %36, i32* %7, align 4
  %37 = getelementptr inbounds [100 x i32], [100 x i32]* %4, i64 0, i64 0
  %38 = load i32, i32* %2, align 4
  %39 = sext i32 %38 to i64
  %40 = getelementptr inbounds i32, i32* %37, i64 %39
  %41 = getelementptr inbounds i32, i32* %40, i64 -1
  store i32* %41, i32** %6, align 8
  br label %42

42:                                               ; preds = %51, %30
  %43 = load i32*, i32** %6, align 8
  %44 = getelementptr inbounds [100 x i32], [100 x i32]* %4, i64 0, i64 0
  %45 = icmp ugt i32* %43, %44
  br i1 %45, label %46, label %54

46:                                               ; preds = %42
  %47 = load i32*, i32** %6, align 8
  %48 = getelementptr inbounds i32, i32* %47, i64 -1
  %49 = load i32, i32* %48, align 4
  %50 = load i32*, i32** %6, align 8
  store i32 %49, i32* %50, align 4
  br label %51

51:                                               ; preds = %46
  %52 = load i32*, i32** %6, align 8
  %53 = getelementptr inbounds i32, i32* %52, i32 -1
  store i32* %53, i32** %6, align 8
  br label %42

54:                                               ; preds = %42
  %55 = load i32, i32* %7, align 4
  %56 = load i32*, i32** %6, align 8
  store i32 %55, i32* %56, align 4
  %57 = load i32, i32* %3, align 4
  %58 = add nsw i32 %57, -1
  store i32 %58, i32* %3, align 4
  br label %27

59:                                               ; preds = %27
  %60 = getelementptr inbounds [100 x i32], [100 x i32]* %4, i64 0, i64 0
  store i32* %60, i32** %6, align 8
  br label %61

61:                                               ; preds = %74, %59
  %62 = load i32*, i32** %6, align 8
  %63 = getelementptr inbounds [100 x i32], [100 x i32]* %4, i64 0, i64 0
  %64 = load i32, i32* %2, align 4
  %65 = sext i32 %64 to i64
  %66 = getelementptr inbounds i32, i32* %63, i64 %65
  %67 = getelementptr inbounds i32, i32* %66, i64 -1
  %68 = icmp ult i32* %62, %67
  br i1 %68, label %69, label %77

69:                                               ; preds = %61
  %70 = load i32*, i32** %6, align 8
  %71 = load i32, i32* %70, align 4
  %72 = call dereferenceable(272) %"class.std::basic_ostream"* @_ZNSolsEi(%"class.std::basic_ostream"* @_ZSt4cout, i32 %71)
  %73 = call dereferenceable(272) %"class.std::basic_ostream"* @_ZStlsISt11char_traitsIcEERSt13basic_ostreamIcT_ES5_c(%"class.std::basic_ostream"* dereferenceable(272) %72, i8 signext 32)
  br label %74

74:                                               ; preds = %69
  %75 = load i32*, i32** %6, align 8
  %76 = getelementptr inbounds i32, i32* %75, i32 1
  store i32* %76, i32** %6, align 8
  br label %61

77:                                               ; preds = %61
  %78 = getelementptr inbounds [100 x i32], [100 x i32]* %4, i64 0, i64 0
  store i32* %78, i32** %6, align 8
  %79 = getelementptr inbounds [100 x i32], [100 x i32]* %4, i64 0, i64 0
  %80 = load i32, i32* %2, align 4
  %81 = sext i32 %80 to i64
  %82 = getelementptr inbounds i32, i32* %79, i64 %81
  %83 = getelementptr inbounds i32, i32* %82, i64 -1
  store i32* %83, i32** %6, align 8
  %84 = load i32*, i32** %6, align 8
  %85 = load i32, i32* %84, align 4
  %86 = call dereferenceable(272) %"class.std::basic_ostream"* @_ZNSolsEi(%"class.std::basic_ostream"* @_ZSt4cout, i32 %85)
  %87 = call dereferenceable(272) %"class.std::basic_ostream"* @_ZNSolsEPFRSoS_E(%"class.std::basic_ostream"* @_ZSt4cout, %"class.std::basic_ostream"* (%"class.std::basic_ostream"*)* @_ZSt4endlIcSt11char_traitsIcEERSt13basic_ostreamIT_T0_ES6_)
  ret i32 0
}

declare dso_local dereferenceable(280) %"class.std::basic_istream"* @_ZNSirsERi(%"class.std::basic_istream"*, i32* dereferenceable(4)) #1

declare dso_local dereferenceable(272) %"class.std::basic_ostream"* @_ZStlsISt11char_traitsIcEERSt13basic_ostreamIcT_ES5_c(%"class.std::basic_ostream"* dereferenceable(272), i8 signext) #1

declare dso_local dereferenceable(272) %"class.std::basic_ostream"* @_ZNSolsEi(%"class.std::basic_ostream"*, i32) #1

declare dso_local dereferenceable(272) %"class.std::basic_ostream"* @_ZNSolsEPFRSoS_E(%"class.std::basic_ostream"*, %"class.std::basic_ostream"* (%"class.std::basic_ostream"*)*) #1

declare dso_local dereferenceable(272) %"class.std::basic_ostream"* @_ZSt4endlIcSt11char_traitsIcEERSt13basic_ostreamIT_T0_ES6_(%"class.std::basic_ostream"* dereferenceable(272)) #1

; Function Attrs: noinline uwtable
define internal void @_GLOBAL__sub_I_5552.cpp() #0 section ".text.startup" {
  call void @__cxx_global_var_init()
  ret void
}


!llvm.module.flags = !{!0}
!llvm.ident = !{!1}

!0 = !{i32 1, !"wchar_size", i32 4}
!1 = !{!"clang version 10.0.0-4ubuntu1 "}
